target datalayout = "e-m:e-p270:32:32-p271:32:32-p272:64:64-i64:64-i128:128-f80:128-n8:16:32:64-S128"
target triple = "x86_64-pc-linux-gnu"

%struct.fetch_negotiator = type { ptr, ptr, ptr, ptr, ptr, ptr }
%struct.data = type { %struct.prio_queue, i32 }
%struct.prio_queue = type { ptr, i64, ptr, i64, i64, ptr }
%struct.prio_queue_entry = type { i64, ptr }

; Function Attrs: nounwind uwtable
define internal void @release(ptr noundef %0) #0 {
  %2 = alloca ptr, align 8
  %3 = alloca ptr, align 8
  %4 = alloca i64, align 8
  store ptr %0, ptr %2, align 8, !tbaa !4
  call void @llvm.lifetime.start.p0(i64 8, ptr %3) #7
  %5 = load ptr, ptr %2, align 8, !tbaa !4
  %6 = getelementptr inbounds nuw %struct.fetch_negotiator, ptr %5, i32 0, i32 5
  %7 = load ptr, ptr %6, align 8, !tbaa !17
  store ptr %7, ptr %3, align 8, !tbaa !15
  call void @llvm.lifetime.start.p0(i64 8, ptr %4) #7
  store i64 0, ptr %4, align 8, !tbaa !29
  br label %8

8:                                                ; preds = %25, %1
  %9 = load i64, ptr %4, align 8, !tbaa !29
  %10 = load ptr, ptr %3, align 8, !tbaa !15
  %11 = getelementptr inbounds nuw %struct.data, ptr %10, i32 0, i32 0
  %12 = getelementptr inbounds nuw %struct.prio_queue, ptr %11, i32 0, i32 4
  %13 = load i64, ptr %12, align 8, !tbaa !30
  %14 = icmp ult i64 %9, %13
  br i1 %14, label %16, label %15

15:                                               ; preds = %8
  call void @llvm.lifetime.end.p0(i64 8, ptr %4) #7
  br label %28

16:                                               ; preds = %8
  %17 = load ptr, ptr %3, align 8, !tbaa !15
  %18 = getelementptr inbounds nuw %struct.data, ptr %17, i32 0, i32 0
  %19 = getelementptr inbounds nuw %struct.prio_queue, ptr %18, i32 0, i32 5
  %20 = load ptr, ptr %19, align 8, !tbaa !31
  %21 = load i64, ptr %4, align 8, !tbaa !29
  %22 = getelementptr inbounds nuw %struct.prio_queue_entry, ptr %20, i64 %21
  %23 = getelementptr inbounds nuw %struct.prio_queue_entry, ptr %22, i32 0, i32 1
  %24 = load ptr, ptr %23, align 8, !tbaa !32
  call void @free(ptr noundef %24) #7
  br label %25

25:                                               ; preds = %16
  %26 = load i64, ptr %4, align 8, !tbaa !29
  %27 = add i64 %26, 1
  store i64 %27, ptr %4, align 8, !tbaa !29
  br label %8, !llvm.loop !34

28:                                               ; preds = %15
  %29 = load ptr, ptr %3, align 8, !tbaa !15
  %30 = getelementptr inbounds nuw %struct.data, ptr %29, i32 0, i32 0
  call void @clear_prio_queue(ptr noundef %30)
  br label %31

31:                                               ; preds = %28
  %32 = load ptr, ptr %3, align 8, !tbaa !15
  call void @free(ptr noundef %32) #7
  store ptr null, ptr %3, align 8, !tbaa !15
  br label %33

33:                                               ; preds = %31
  br label %34

34:                                               ; preds = %33
  call void @llvm.lifetime.end.p0(i64 8, ptr %3) #7
  ret void
}