; Function Attrs: nounwind uwtable
define internal void @release(ptr noundef readonly captures(none) %0) #0 {
  %2 = getelementptr inbounds nuw i8, ptr %0, i64 40
  %3 = load ptr, ptr %2, align 8, !tbaa !13
  %4 = getelementptr inbounds nuw i8, ptr %3, i64 32
  %5 = load i64, ptr %4, align 8, !tbaa !27
  %.not = icmp eq i64 %5, 0
  br i1 %.not, label %._crit_edge, label %.lr.ph

.lr.ph:                                           ; preds = %1
  %6 = getelementptr inbounds nuw i8, ptr %3, i64 40
  br label %7

._crit_edge:                                      ; preds = %7, %1
  tail call void @clear_prio_queue(ptr noundef nonnull %3) #6
  tail call void @free(ptr noundef nonnull %3) #6
  ret void

7:                                                ; preds = %.lr.ph, %7
  %.07 = phi i64 [ 0, %.lr.ph ], [ %11, %7 ]
  %8 = load ptr, ptr %6, align 8, !tbaa !33
  %9 = getelementptr inbounds nuw %struct.prio_queue_entry, ptr %8, i64 %.07, i32 1
  %10 = load ptr, ptr %9, align 8, !tbaa !36
  tail call void @free(ptr noundef %10) #6
  %11 = add nuw i64 %.07, 1
  %12 = load i64, ptr %4, align 8, !tbaa !27
  %13 = icmp ult i64 %11, %12
  br i1 %13, label %7, label %._crit_edge, !llvm.loop !43
}